target datalayout = "e-m:e-p270:32:32-p271:32:32-p272:64:64-i64:64-i128:128-f80:128-n8:16:32:64-S128"
target triple = "x86_64-pc-linux-gnu"

%struct._dcerpc_bind_key = type { ptr, i16, i64 }

; Function Attrs: nounwind null_pointer_is_valid sspstrong uwtable
define internal i32 @dcerpc_bind_hash(ptr noundef %0) #10 {
  %2 = alloca ptr, align 8
  %3 = alloca ptr, align 8
  %4 = alloca i32, align 4
  store ptr %0, ptr %2, align 8
  call void @llvm.lifetime.start.p0(i64 8, ptr %3) #19
  %5 = load ptr, ptr %2, align 8
  store ptr %5, ptr %3, align 8
  call void @llvm.lifetime.start.p0(i64 4, ptr %4) #19
  %6 = load ptr, ptr %3, align 8
  %7 = getelementptr inbounds nuw %struct._dcerpc_bind_key, ptr %6, i32 0, i32 0
  %8 = load ptr, ptr %7, align 8
  %9 = ptrtoint ptr %8 to i64
  %10 = trunc i64 %9 to i32
  store i32 %10, ptr %4, align 4
  %11 = load ptr, ptr %3, align 8
  %12 = getelementptr inbounds nuw %struct._dcerpc_bind_key, ptr %11, i32 0, i32 1
  %13 = load i16, ptr %12, align 8
  %14 = zext i16 %13 to i32
  %15 = load i32, ptr %4, align 4
  %16 = add i32 %15, %14
  store i32 %16, ptr %4, align 4
  %17 = load ptr, ptr %3, align 8
  %18 = getelementptr inbounds nuw %struct._dcerpc_bind_key, ptr %17, i32 0, i32 2
  %19 = load i64, ptr %18, align 8
  %20 = trunc i64 %19 to i32
  %21 = load i32, ptr %4, align 4
  %22 = add i32 %21, %20
  store i32 %22, ptr %4, align 4
  %23 = load ptr, ptr %3, align 8
  %24 = getelementptr inbounds nuw %struct._dcerpc_bind_key, ptr %23, i32 0, i32 2
  %25 = load i64, ptr %24, align 8
  %26 = shl i64 %25, 4
  %27 = trunc i64 %26 to i32
  %28 = load i32, ptr %4, align 4
  %29 = add i32 %28, %27
  store i32 %29, ptr %4, align 4
  %30 = load i32, ptr %4, align 4
  call void @llvm.lifetime.end.p0(i64 4, ptr %4) #19
  call void @llvm.lifetime.end.p0(i64 8, ptr %3) #19
  ret i32 %30
}