; Function Attrs: mustprogress nofree norecurse nosync nounwind null_pointer_is_valid sspstrong willreturn memory(argmem: read) uwtable
define internal i32 @dcerpc_bind_hash(ptr noundef readonly captures(none) %0) #7 {
  %2 = load ptr, ptr %0, align 8
  %3 = ptrtoint ptr %2 to i64
  %4 = trunc i64 %3 to i32
  %5 = getelementptr inbounds nuw i8, ptr %0, i64 8
  %6 = load i16, ptr %5, align 8
  %7 = zext i16 %6 to i32
  %8 = add i32 %4, %7
  %9 = getelementptr inbounds nuw i8, ptr %0, i64 16
  %10 = load i64, ptr %9, align 8
  %11 = trunc i64 %10 to i32
  %12 = add i32 %8, %11
  %13 = shl i32 %11, 4
  %14 = add i32 %12, %13
  ret i32 %14
}